target datalayout = "e-m:e-p270:32:32-p271:32:32-p272:64:64-i64:64-i128:128-f80:128-n8:16:32:64-S128"
target triple = "x86_64-pc-linux-gnu"

%class.GrowableCache = type { ptr, ptr, ptr, ptr }
%class.JvmtiBreakpoints = type { [8 x i8], %class.JvmtiBreakpointCache }
%class.JvmtiBreakpointCache = type { %class.GrowableCache }

@_ZN13GrowableCacheD1Ev = hidden unnamed_addr alias void (ptr), ptr @_ZN13GrowableCacheD2Ev

; Function Attrs: mustprogress nounwind uwtable
define linkonce_odr hidden void @_ZN20JvmtiBreakpointCacheD2Ev(ptr noundef nonnull align 8 dereferenceable(32) %0) unnamed_addr #1 comdat align 2 {
  %2 = alloca ptr, align 8
  store ptr %0, ptr %2, align 8
  %3 = load ptr, ptr %2, align 8
  %4 = getelementptr inbounds %class.JvmtiBreakpointCache, ptr %3, i32 0, i32 0
  call void @_ZN13GrowableCacheD1Ev(ptr noundef nonnull align 8 dereferenceable(32) %4) #10
  ret void
}

; Function Attrs: mustprogress nounwind uwtable
define hidden void @_ZN16JvmtiBreakpointsD2Ev(ptr noundef nonnull align 8 dereferenceable(40) %0) unnamed_addr #1 align 2 {
  %2 = alloca ptr, align 8
  store ptr %0, ptr %2, align 8
  %3 = load ptr, ptr %2, align 8
  %4 = getelementptr inbounds %class.JvmtiBreakpoints, ptr %3, i32 0, i32 1
  call void @_ZN20JvmtiBreakpointCacheD2Ev(ptr noundef nonnull align 8 dereferenceable(32) %4) #10
  ret void
}