; Function Attrs: mustprogress nounwind uwtable
define hidden void @_ZN16JvmtiBreakpointsD2Ev(ptr nocapture noundef nonnull align 8 dereferenceable(40) %0) unnamed_addr #0 align 2 {
  %2 = getelementptr inbounds i8, ptr %0, i64 8
  %3 = getelementptr inbounds i8, ptr %0, i64 16
  %4 = load ptr, ptr %3, align 8
  %5 = load i32, ptr %4, align 4
  %6 = icmp sgt i32 %5, 0
  br i1 %6, label %.lr.ph.preheader.i.i.i, label %_ZN13GrowableCache5clearEv.exit.i.i

.lr.ph.preheader.i.i.i:                           ; preds = %1
  %wide.trip.count.i.i.i = zext nneg i32 %5 to i64
  br label %.lr.ph.i.i.i

.lr.ph.i.i.i:                                     ; preds = %17, %.lr.ph.preheader.i.i.i
  %indvars.iv.i.i.i = phi i64 [ 0, %.lr.ph.preheader.i.i.i ], [ %indvars.iv.next.i.i.i, %17 ]
  %7 = load ptr, ptr %3, align 8
  %8 = getelementptr inbounds i8, ptr %7, i64 8
  %9 = load ptr, ptr %8, align 8
  %10 = getelementptr inbounds ptr, ptr %9, i64 %indvars.iv.i.i.i
  %11 = load ptr, ptr %10, align 8
  %12 = icmp eq ptr %11, null
  br i1 %12, label %17, label %13

13:                                               ; preds = %.lr.ph.i.i.i
  %14 = load ptr, ptr %11, align 8
  %15 = getelementptr inbounds i8, ptr %14, i64 8
  %16 = load ptr, ptr %15, align 8
  tail call void %16(ptr noundef nonnull align 8 dereferenceable(8) %11) #17
  br label %17

17:                                               ; preds = %13, %.lr.ph.i.i.i
  %indvars.iv.next.i.i.i = add nuw nsw i64 %indvars.iv.i.i.i, 1
  %exitcond.not.i.i.i = icmp eq i64 %indvars.iv.next.i.i.i, %wide.trip.count.i.i.i
  br i1 %exitcond.not.i.i.i, label %._crit_edge.loopexit.i.i.i, label %.lr.ph.i.i.i, !llvm.loop !12

._crit_edge.loopexit.i.i.i:                       ; preds = %17
  %.pre.i.i.i = load ptr, ptr %3, align 8
  br label %_ZN13GrowableCache5clearEv.exit.i.i

_ZN13GrowableCache5clearEv.exit.i.i:              ; preds = %._crit_edge.loopexit.i.i.i, %1
  %18 = phi ptr [ %.pre.i.i.i, %._crit_edge.loopexit.i.i.i ], [ %4, %1 ]
  store i32 0, ptr %18, align 4
  tail call void @_ZN13GrowableCache7recacheEv(ptr noundef nonnull align 8 dereferenceable(32) %2)
  %19 = load ptr, ptr %3, align 8
  %20 = icmp eq ptr %19, null
  br i1 %20, label %_ZN20JvmtiBreakpointCacheD2Ev.exit, label %21

21:                                               ; preds = %_ZN13GrowableCache5clearEv.exit.i.i
  %22 = getelementptr inbounds i8, ptr %19, i64 16
  %23 = load i64, ptr %22, align 8
  %24 = and i64 %23, 1
  %.not.i.i.i = icmp eq i64 %24, 0
  br i1 %.not.i.i.i, label %_ZN13GrowableArrayIP15GrowableElementED2Ev.exit.i.i, label %25

25:                                               ; preds = %21
  store i32 0, ptr %19, align 4
  tail call void @_ZN26GrowableArrayWithAllocatorIP15GrowableElement13GrowableArrayIS1_EE13shrink_to_fitEv(ptr noundef nonnull align 8 dereferenceable(16) %19)
  br label %_ZN13GrowableArrayIP15GrowableElementED2Ev.exit.i.i

_ZN13GrowableArrayIP15GrowableElementED2Ev.exit.i.i: ; preds = %25, %21
  tail call void @_ZN6AnyObjdlEPv(ptr noundef nonnull %19) #17
  br label %_ZN20JvmtiBreakpointCacheD2Ev.exit

_ZN20JvmtiBreakpointCacheD2Ev.exit:               ; preds = %_ZN13GrowableCache5clearEv.exit.i.i, %_ZN13GrowableArrayIP15GrowableElementED2Ev.exit.i.i
  %26 = getelementptr inbounds i8, ptr %0, i64 24
  %27 = load ptr, ptr %26, align 8
  tail call void @_Z8FreeHeapPv(ptr noundef %27) #17
  ret void
}